target datalayout = "e-m:e-p270:32:32-p271:32:32-p272:64:64-i64:64-i128:128-f80:128-n8:16:32:64-S128"
target triple = "x86_64-pc-linux-gnu"

@hf_ulmap_reserved_uint = internal global i32 0, align 4
@hf_ulmap_aas_ul_extended_uiuc = internal global i32 0, align 4
@hf_ulmap_aas_ul_length = internal global i32 0, align 4
@hf_ulmap_aas_ul_permutation = internal global i32 0, align 4
@hf_ulmap_aas_ul_ul_permbase = internal global i32 0, align 4
@hf_ulmap_aas_ul_ofdma_symbol_offset = internal global i32 0, align 4
@hf_ulmap_aas_ul_aas_zone_length = internal global i32 0, align 4
@hf_ulmap_aas_ul_uplink_preamble_config = internal global i32 0, align 4
@hf_ulmap_aas_ul_preamble_type = internal global i32 0, align 4
@ett_293 = internal global i32 0, align 4
@.str.549 = private unnamed_addr constant [10 x i8] c"AAS_UL_IE\00", align 1

; Function Attrs: null_pointer_is_valid sspstrong uwtable
define internal i32 @AAS_UL_IE(ptr noundef %0, i32 noundef %1, i32 noundef %2, ptr noundef %3) #1 {
  %5 = alloca ptr, align 8
  %6 = alloca i32, align 4
  %7 = alloca i32, align 4
  %8 = alloca ptr, align 8
  %9 = alloca i32, align 4
  %10 = alloca ptr, align 8
  store ptr %0, ptr %5, align 8
  store i32 %1, ptr %6, align 4
  store i32 %2, ptr %7, align 4
  store ptr %3, ptr %8, align 8
  call void @llvm.lifetime.start.p0(i64 4, ptr %9) #5
  call void @llvm.lifetime.start.p0(i64 8, ptr %10) #5
  %11 = load i32, ptr %6, align 4
  %12 = mul i32 %11, 4
  store i32 %12, ptr %9, align 4
  %13 = load ptr, ptr %5, align 8
  %14 = load ptr, ptr %8, align 8
  %15 = load i32, ptr %6, align 4
  %16 = sdiv i32 %15, 2
  %17 = load i32, ptr %6, align 4
  %18 = and i32 %17, 1
  %19 = add i32 1, %18
  %20 = load i32, ptr %7, align 4
  %21 = add i32 %19, %20
  %22 = sdiv i32 %21, 2
  %23 = load i32, ptr @ett_293, align 4
  %24 = call ptr @proto_tree_add_subtree(ptr noundef %13, ptr noundef %14, i32 noundef %16, i32 noundef %22, i32 noundef %23, ptr noundef null, ptr noundef @.str.549)
  store ptr %24, ptr %10, align 8
  %25 = load ptr, ptr %10, align 8
  %26 = load i32, ptr @hf_ulmap_aas_ul_extended_uiuc, align 4
  %27 = load ptr, ptr %8, align 8
  %28 = load i32, ptr %9, align 4
  %29 = call ptr @proto_tree_add_bits_item(ptr noundef %25, i32 noundef %26, ptr noundef %27, i32 noundef %28, i32 noundef 4, i32 noundef 0)
  %30 = load i32, ptr %9, align 4
  %31 = add i32 %30, 4
  store i32 %31, ptr %9, align 4
  %32 = load ptr, ptr %10, align 8
  %33 = load i32, ptr @hf_ulmap_aas_ul_length, align 4
  %34 = load ptr, ptr %8, align 8
  %35 = load i32, ptr %9, align 4
  %36 = call ptr @proto_tree_add_bits_item(ptr noundef %32, i32 noundef %33, ptr noundef %34, i32 noundef %35, i32 noundef 4, i32 noundef 0)
  %37 = load i32, ptr %9, align 4
  %38 = add i32 %37, 4
  store i32 %38, ptr %9, align 4
  %39 = load ptr, ptr %10, align 8
  %40 = load i32, ptr @hf_ulmap_aas_ul_permutation, align 4
  %41 = load ptr, ptr %8, align 8
  %42 = load i32, ptr %9, align 4
  %43 = call ptr @proto_tree_add_bits_item(ptr noundef %39, i32 noundef %40, ptr noundef %41, i32 noundef %42, i32 noundef 2, i32 noundef 0)
  %44 = load i32, ptr %9, align 4
  %45 = add i32 %44, 2
  store i32 %45, ptr %9, align 4
  %46 = load ptr, ptr %10, align 8
  %47 = load i32, ptr @hf_ulmap_aas_ul_ul_permbase, align 4
  %48 = load ptr, ptr %8, align 8
  %49 = load i32, ptr %9, align 4
  %50 = call ptr @proto_tree_add_bits_item(ptr noundef %46, i32 noundef %47, ptr noundef %48, i32 noundef %49, i32 noundef 7, i32 noundef 0)
  %51 = load i32, ptr %9, align 4
  %52 = add i32 %51, 7
  store i32 %52, ptr %9, align 4
  %53 = load ptr, ptr %10, align 8
  %54 = load i32, ptr @hf_ulmap_aas_ul_ofdma_symbol_offset, align 4
  %55 = load ptr, ptr %8, align 8
  %56 = load i32, ptr %9, align 4
  %57 = call ptr @proto_tree_add_bits_item(ptr noundef %53, i32 noundef %54, ptr noundef %55, i32 noundef %56, i32 noundef 8, i32 noundef 0)
  %58 = load i32, ptr %9, align 4
  %59 = add i32 %58, 8
  store i32 %59, ptr %9, align 4
  %60 = load ptr, ptr %10, align 8
  %61 = load i32, ptr @hf_ulmap_aas_ul_aas_zone_length, align 4
  %62 = load ptr, ptr %8, align 8
  %63 = load i32, ptr %9, align 4
  %64 = call ptr @proto_tree_add_bits_item(ptr noundef %60, i32 noundef %61, ptr noundef %62, i32 noundef %63, i32 noundef 8, i32 noundef 0)
  %65 = load i32, ptr %9, align 4
  %66 = add i32 %65, 8
  store i32 %66, ptr %9, align 4
  %67 = load ptr, ptr %10, align 8
  %68 = load i32, ptr @hf_ulmap_aas_ul_uplink_preamble_config, align 4
  %69 = load ptr, ptr %8, align 8
  %70 = load i32, ptr %9, align 4
  %71 = call ptr @proto_tree_add_bits_item(ptr noundef %67, i32 noundef %68, ptr noundef %69, i32 noundef %70, i32 noundef 2, i32 noundef 0)
  %72 = load i32, ptr %9, align 4
  %73 = add i32 %72, 2
  store i32 %73, ptr %9, align 4
  %74 = load ptr, ptr %10, align 8
  %75 = load i32, ptr @hf_ulmap_aas_ul_preamble_type, align 4
  %76 = load ptr, ptr %8, align 8
  %77 = load i32, ptr %9, align 4
  %78 = call ptr @proto_tree_add_bits_item(ptr noundef %74, i32 noundef %75, ptr noundef %76, i32 noundef %77, i32 noundef 1, i32 noundef 0)
  %79 = load i32, ptr %9, align 4
  %80 = add i32 %79, 1
  store i32 %80, ptr %9, align 4
  %81 = load ptr, ptr %10, align 8
  %82 = load i32, ptr @hf_ulmap_reserved_uint, align 4
  %83 = load ptr, ptr %8, align 8
  %84 = load i32, ptr %9, align 4
  %85 = call ptr @proto_tree_add_bits_item(ptr noundef %81, i32 noundef %82, ptr noundef %83, i32 noundef %84, i32 noundef 4, i32 noundef 0)
  %86 = load i32, ptr %9, align 4
  %87 = add i32 %86, 4
  store i32 %87, ptr %9, align 4
  %88 = load i32, ptr %9, align 4
  %89 = sdiv i32 %88, 4
  call void @llvm.lifetime.end.p0(i64 8, ptr %10) #5
  call void @llvm.lifetime.end.p0(i64 4, ptr %9) #5
  ret i32 %89
}